; Function Attrs: nounwind sspstrong uwtable
define internal noundef i64 @time_plus(i64 noundef %0, i64 noundef %1) #1 {
  %3 = tail call ptr @rb_check_typeddata(i64 noundef %0, ptr noundef nonnull @time_data_type) #21
  %4 = getelementptr inbounds nuw i8, ptr %3, i64 40
  %5 = load i64, ptr %4, align 8
  %6 = and i64 %5, 61572651155456
  %.not.i = icmp eq i64 %6, 26388279066624
  br i1 %.not.i, label %7, label %get_timeval.exit

7:                                                ; preds = %2
  %8 = load i64, ptr @rb_eTypeError, align 8, !tbaa !11
  %9 = tail call i64 @rb_obj_class(i64 noundef %0) #21
  tail call void (i64, ptr, ...) @rb_raise(i64 noundef %8, ptr noundef nonnull @.str.92, i64 noundef %9) #22
  unreachable

get_timeval.exit:                                 ; preds = %2
  %10 = tail call i32 @rb_typeddata_is_kind_of(i64 noundef %1, ptr noundef nonnull @time_data_type) #21
  %.not = icmp eq i32 %10, 0
  br i1 %.not, label %13, label %11

11:                                               ; preds = %get_timeval.exit
  %12 = load i64, ptr @rb_eTypeError, align 8, !tbaa !11
  tail call void (i64, ptr, ...) @rb_raise(i64 noundef %12, ptr noundef nonnull @.str.129) #22
  unreachable

13:                                               ; preds = %get_timeval.exit
  %14 = load i64, ptr @rb_cTime, align 8, !tbaa !11
  %15 = tail call fastcc noundef i64 @time_add0(i64 noundef %14, ptr noundef nonnull readonly %3, i64 noundef %1, i32 noundef 1)
  ret i64 %15
}